target datalayout = "e-m:e-p270:32:32-p271:32:32-p272:64:64-i64:64-i128:128-f80:128-n8:16:32:64-S128"
target triple = "x86_64-pc-linux-gnu"

%struct.crypto_ex_data_st = type { ptr }
%struct.ssl_st = type { i32, i16, i16, ptr, ptr, ptr, ptr, ptr, i32, i32, ptr, ptr, i32, i32, ptr, ptr, ptr, ptr, ptr, ptr, ptr, ptr, i32, i32, [32 x i8], ptr, ptr, ptr, ptr, ptr, ptr, ptr, i64, %struct.crypto_ex_data_st, ptr, i32, i32, i32, i32, i16, ptr, i32, i64, ptr, ptr, ptr, ptr, ptr, ptr, i32, i32, ptr, ptr, i8, i8, i32 }
%struct.ssl_protocol_method_st = type { i8, ptr, ptr, ptr, ptr, ptr, ptr, ptr, ptr, ptr, ptr, ptr, i32, ptr, ptr }

; Function Attrs: nounwind uwtable
define hidden zeroext i16 @ssl3_get_mutual_version(ptr noundef %0, i16 noundef zeroext %1) #0 {
  %3 = alloca i16, align 2
  %4 = alloca ptr, align 8
  %5 = alloca i16, align 2
  %6 = alloca i16, align 2
  %7 = alloca i32, align 4
  store ptr %0, ptr %4, align 8, !tbaa !80
  store i16 %1, ptr %5, align 2, !tbaa !63
  call void @llvm.lifetime.start.p0(i64 2, ptr %6) #8
  store i16 0, ptr %6, align 2, !tbaa !63
  %8 = load ptr, ptr %4, align 8, !tbaa !80
  %9 = getelementptr inbounds nuw %struct.ssl_st, ptr %8, i32 0, i32 3
  %10 = load ptr, ptr %9, align 8, !tbaa !117
  %11 = getelementptr inbounds nuw %struct.ssl_protocol_method_st, ptr %10, i32 0, i32 0
  %12 = load i8, ptr %11, align 8, !tbaa !192
  %13 = icmp ne i8 %12, 0
  br i1 %13, label %14, label %78

14:                                               ; preds = %2
  %15 = load ptr, ptr %4, align 8, !tbaa !80
  %16 = getelementptr inbounds nuw %struct.ssl_st, ptr %15, i32 0, i32 1
  %17 = load i16, ptr %16, align 4, !tbaa !91
  %18 = zext i16 %17 to i32
  %19 = icmp ne i32 %18, 0
  br i1 %19, label %20, label %32

20:                                               ; preds = %14
  %21 = load i16, ptr %5, align 2, !tbaa !63
  %22 = zext i16 %21 to i32
  %23 = load ptr, ptr %4, align 8, !tbaa !80
  %24 = getelementptr inbounds nuw %struct.ssl_st, ptr %23, i32 0, i32 1
  %25 = load i16, ptr %24, align 4, !tbaa !91
  %26 = zext i16 %25 to i32
  %27 = icmp slt i32 %22, %26
  br i1 %27, label %28, label %32

28:                                               ; preds = %20
  %29 = load ptr, ptr %4, align 8, !tbaa !80
  %30 = getelementptr inbounds nuw %struct.ssl_st, ptr %29, i32 0, i32 1
  %31 = load i16, ptr %30, align 4, !tbaa !91
  store i16 %31, ptr %5, align 2, !tbaa !63
  br label %32

32:                                               ; preds = %28, %20, %14
  %33 = load i16, ptr %5, align 2, !tbaa !63
  %34 = zext i16 %33 to i32
  %35 = icmp sle i32 %34, 65277
  br i1 %35, label %36, label %44

36:                                               ; preds = %32
  %37 = load ptr, ptr %4, align 8, !tbaa !80
  %38 = getelementptr inbounds nuw %struct.ssl_st, ptr %37, i32 0, i32 35
  %39 = load i32, ptr %38, align 8, !tbaa !92
  %40 = zext i32 %39 to i64
  %41 = and i64 %40, 134217728
  %42 = icmp ne i64 %41, 0
  br i1 %42, label %44, label %43

43:                                               ; preds = %36
  store i16 -259, ptr %6, align 2, !tbaa !63
  br label %57

44:                                               ; preds = %36, %32
  %45 = load i16, ptr %5, align 2, !tbaa !63
  %46 = zext i16 %45 to i32
  %47 = icmp sle i32 %46, 65279
  br i1 %47, label %48, label %56

48:                                               ; preds = %44
  %49 = load ptr, ptr %4, align 8, !tbaa !80
  %50 = getelementptr inbounds nuw %struct.ssl_st, ptr %49, i32 0, i32 35
  %51 = load i32, ptr %50, align 8, !tbaa !92
  %52 = zext i32 %51 to i64
  %53 = and i64 %52, 67108864
  %54 = icmp ne i64 %53, 0
  br i1 %54, label %56, label %55

55:                                               ; preds = %48
  store i16 -257, ptr %6, align 2, !tbaa !63
  br label %56

56:                                               ; preds = %55, %48, %44
  br label %57

57:                                               ; preds = %56, %43
  %58 = load i16, ptr %6, align 2, !tbaa !63
  %59 = zext i16 %58 to i32
  %60 = icmp ne i32 %59, 0
  br i1 %60, label %61, label %76

61:                                               ; preds = %57
  %62 = load ptr, ptr %4, align 8, !tbaa !80
  %63 = getelementptr inbounds nuw %struct.ssl_st, ptr %62, i32 0, i32 2
  %64 = load i16, ptr %63, align 2, !tbaa !82
  %65 = zext i16 %64 to i32
  %66 = icmp ne i32 %65, 0
  br i1 %66, label %67, label %76

67:                                               ; preds = %61
  %68 = load i16, ptr %6, align 2, !tbaa !63
  %69 = zext i16 %68 to i32
  %70 = load ptr, ptr %4, align 8, !tbaa !80
  %71 = getelementptr inbounds nuw %struct.ssl_st, ptr %70, i32 0, i32 2
  %72 = load i16, ptr %71, align 2, !tbaa !82
  %73 = zext i16 %72 to i32
  %74 = icmp sgt i32 %69, %73
  br i1 %74, label %75, label %76

75:                                               ; preds = %67
  store i16 0, ptr %3, align 2
  store i32 1, ptr %7, align 4
  br label %168

76:                                               ; preds = %67, %61, %57
  %77 = load i16, ptr %6, align 2, !tbaa !63
  store i16 %77, ptr %3, align 2
  store i32 1, ptr %7, align 4
  br label %168

78:                                               ; preds = %2
  %79 = load ptr, ptr %4, align 8, !tbaa !80
  %80 = getelementptr inbounds nuw %struct.ssl_st, ptr %79, i32 0, i32 1
  %81 = load i16, ptr %80, align 4, !tbaa !91
  %82 = zext i16 %81 to i32
  %83 = icmp ne i32 %82, 0
  br i1 %83, label %84, label %96

84:                                               ; preds = %78
  %85 = load i16, ptr %5, align 2, !tbaa !63
  %86 = zext i16 %85 to i32
  %87 = load ptr, ptr %4, align 8, !tbaa !80
  %88 = getelementptr inbounds nuw %struct.ssl_st, ptr %87, i32 0, i32 1
  %89 = load i16, ptr %88, align 4, !tbaa !91
  %90 = zext i16 %89 to i32
  %91 = icmp sgt i32 %86, %90
  br i1 %91, label %92, label %96

92:                                               ; preds = %84
  %93 = load ptr, ptr %4, align 8, !tbaa !80
  %94 = getelementptr inbounds nuw %struct.ssl_st, ptr %93, i32 0, i32 1
  %95 = load i16, ptr %94, align 4, !tbaa !91
  store i16 %95, ptr %5, align 2, !tbaa !63
  br label %96

96:                                               ; preds = %92, %84, %78
  %97 = load i16, ptr %5, align 2, !tbaa !63
  %98 = zext i16 %97 to i32
  %99 = icmp sge i32 %98, 771
  br i1 %99, label %100, label %108

100:                                              ; preds = %96
  %101 = load ptr, ptr %4, align 8, !tbaa !80
  %102 = getelementptr inbounds nuw %struct.ssl_st, ptr %101, i32 0, i32 35
  %103 = load i32, ptr %102, align 8, !tbaa !92
  %104 = zext i32 %103 to i64
  %105 = and i64 %104, 134217728
  %106 = icmp ne i64 %105, 0
  br i1 %106, label %108, label %107

107:                                              ; preds = %100
  store i16 771, ptr %6, align 2, !tbaa !63
  br label %147

108:                                              ; preds = %100, %96
  %109 = load i16, ptr %5, align 2, !tbaa !63
  %110 = zext i16 %109 to i32
  %111 = icmp sge i32 %110, 770
  br i1 %111, label %112, label %120

112:                                              ; preds = %108
  %113 = load ptr, ptr %4, align 8, !tbaa !80
  %114 = getelementptr inbounds nuw %struct.ssl_st, ptr %113, i32 0, i32 35
  %115 = load i32, ptr %114, align 8, !tbaa !92
  %116 = zext i32 %115 to i64
  %117 = and i64 %116, 268435456
  %118 = icmp ne i64 %117, 0
  br i1 %118, label %120, label %119

119:                                              ; preds = %112
  store i16 770, ptr %6, align 2, !tbaa !63
  br label %146

120:                                              ; preds = %112, %108
  %121 = load i16, ptr %5, align 2, !tbaa !63
  %122 = zext i16 %121 to i32
  %123 = icmp sge i32 %122, 769
  br i1 %123, label %124, label %132

124:                                              ; preds = %120
  %125 = load ptr, ptr %4, align 8, !tbaa !80
  %126 = getelementptr inbounds nuw %struct.ssl_st, ptr %125, i32 0, i32 35
  %127 = load i32, ptr %126, align 8, !tbaa !92
  %128 = zext i32 %127 to i64
  %129 = and i64 %128, 67108864
  %130 = icmp ne i64 %129, 0
  br i1 %130, label %132, label %131

131:                                              ; preds = %124
  store i16 769, ptr %6, align 2, !tbaa !63
  br label %145

132:                                              ; preds = %124, %120
  %133 = load i16, ptr %5, align 2, !tbaa !63
  %134 = zext i16 %133 to i32
  %135 = icmp sge i32 %134, 768
  br i1 %135, label %136, label %144

136:                                              ; preds = %132
  %137 = load ptr, ptr %4, align 8, !tbaa !80
  %138 = getelementptr inbounds nuw %struct.ssl_st, ptr %137, i32 0, i32 35
  %139 = load i32, ptr %138, align 8, !tbaa !92
  %140 = zext i32 %139 to i64
  %141 = and i64 %140, 33554432
  %142 = icmp ne i64 %141, 0
  br i1 %142, label %144, label %143

143:                                              ; preds = %136
  store i16 768, ptr %6, align 2, !tbaa !63
  br label %144

144:                                              ; preds = %143, %136, %132
  br label %145

145:                                              ; preds = %144, %131
  br label %146

146:                                              ; preds = %145, %119
  br label %147

147:                                              ; preds = %146, %107
  %148 = load i16, ptr %6, align 2, !tbaa !63
  %149 = zext i16 %148 to i32
  %150 = icmp ne i32 %149, 0
  br i1 %150, label %151, label %166

151:                                              ; preds = %147
  %152 = load ptr, ptr %4, align 8, !tbaa !80
  %153 = getelementptr inbounds nuw %struct.ssl_st, ptr %152, i32 0, i32 2
  %154 = load i16, ptr %153, align 2, !tbaa !82
  %155 = zext i16 %154 to i32
  %156 = icmp ne i32 %155, 0
  br i1 %156, label %157, label %166

157:                                              ; preds = %151
  %158 = load i16, ptr %6, align 2, !tbaa !63
  %159 = zext i16 %158 to i32
  %160 = load ptr, ptr %4, align 8, !tbaa !80
  %161 = getelementptr inbounds nuw %struct.ssl_st, ptr %160, i32 0, i32 2
  %162 = load i16, ptr %161, align 2, !tbaa !82
  %163 = zext i16 %162 to i32
  %164 = icmp slt i32 %159, %163
  br i1 %164, label %165, label %166

165:                                              ; preds = %157
  store i16 0, ptr %3, align 2
  store i32 1, ptr %7, align 4
  br label %168

166:                                              ; preds = %157, %151, %147
  %167 = load i16, ptr %6, align 2, !tbaa !63
  store i16 %167, ptr %3, align 2
  store i32 1, ptr %7, align 4
  br label %168

168:                                              ; preds = %166, %165, %76, %75
  call void @llvm.lifetime.end.p0(i64 2, ptr %6) #8
  %169 = load i16, ptr %3, align 2
  ret i16 %169
}