; Function Attrs: mustprogress nofree norecurse nosync nounwind willreturn memory(read, inaccessiblemem: none) uwtable
define hidden zeroext range(i16 -259, 772) i16 @ssl3_get_mutual_version(ptr noundef readonly captures(none) %0, i16 noundef zeroext %1) local_unnamed_addr #10 {
  %3 = getelementptr inbounds nuw i8, ptr %0, i64 8
  %4 = load ptr, ptr %3, align 8, !tbaa !106
  %5 = load i8, ptr %4, align 8, !tbaa !174
  %.not = icmp eq i8 %5, 0
  %6 = getelementptr inbounds nuw i8, ptr %0, i64 4
  %7 = load i16, ptr %6, align 4, !tbaa !80
  br i1 %.not, label %21, label %8

8:                                                ; preds = %2
  %.031 = tail call i16 @llvm.umax.i16(i16 %1, i16 %7)
  %9 = icmp ult i16 %.031, -258
  br i1 %9, label %10, label %14

10:                                               ; preds = %8
  %11 = getelementptr inbounds nuw i8, ptr %0, i64 264
  %12 = load i32, ptr %11, align 8, !tbaa !81
  %13 = and i32 %12, 134217728
  %.not48 = icmp eq i32 %13, 0
  br i1 %.not48, label %.thread62, label %.thread

14:                                               ; preds = %8
  %15 = icmp samesign ult i16 %.031, -256
  br i1 %15, label %..thread_crit_edge, label %.thread58

..thread_crit_edge:                               ; preds = %14
  %.phi.trans.insert = getelementptr inbounds nuw i8, ptr %0, i64 264
  %.pre = load i32, ptr %.phi.trans.insert, align 8, !tbaa !81
  br label %.thread

.thread:                                          ; preds = %..thread_crit_edge, %10
  %16 = phi i32 [ %.pre, %..thread_crit_edge ], [ %12, %10 ]
  %17 = and i32 %16, 67108864
  %.not49.not = icmp eq i32 %17, 0
  br i1 %.not49.not, label %.thread62, label %.thread58

.thread62:                                        ; preds = %10, %.thread
  %.065 = phi i16 [ -257, %.thread ], [ -259, %10 ]
  %18 = getelementptr inbounds nuw i8, ptr %0, i64 6
  %19 = load i16, ptr %18, align 2, !tbaa !70
  %.not51 = icmp ne i16 %19, 0
  %20 = icmp ugt i16 %.065, %19
  %or.cond53 = and i1 %.not51, %20
  %spec.select77 = select i1 %or.cond53, i16 0, i16 %.065
  br label %.thread58

21:                                               ; preds = %2
  %.not40.not = icmp eq i16 %7, 0
  %22 = tail call i16 @llvm.umin.i16(i16 %1, i16 %7)
  %.132 = select i1 %.not40.not, i16 %1, i16 %22
  %23 = icmp ugt i16 %.132, 770
  br i1 %23, label %24, label %28

24:                                               ; preds = %21
  %25 = getelementptr inbounds nuw i8, ptr %0, i64 264
  %26 = load i32, ptr %25, align 8, !tbaa !81
  %27 = and i32 %26, 134217728
  %.not41 = icmp eq i32 %27, 0
  br i1 %.not41, label %.thread69, label %.thread66

28:                                               ; preds = %21
  %29 = icmp eq i16 %.132, 770
  br i1 %29, label %..thread66_crit_edge, label %32

..thread66_crit_edge:                             ; preds = %28
  %.phi.trans.insert79 = getelementptr inbounds nuw i8, ptr %0, i64 264
  %.pre80 = load i32, ptr %.phi.trans.insert79, align 8, !tbaa !81
  br label %.thread66

.thread66:                                        ; preds = %..thread66_crit_edge, %24
  %30 = phi i32 [ %.pre80, %..thread66_crit_edge ], [ %26, %24 ]
  %31 = and i32 %30, 268435456
  %.not42 = icmp eq i32 %31, 0
  br i1 %.not42, label %.thread69, label %.thread67

32:                                               ; preds = %28
  %33 = icmp samesign ugt i16 %.132, 768
  br i1 %33, label %..thread67_crit_edge, label %36

..thread67_crit_edge:                             ; preds = %32
  %.phi.trans.insert81 = getelementptr inbounds nuw i8, ptr %0, i64 264
  %.pre82 = load i32, ptr %.phi.trans.insert81, align 8, !tbaa !81
  br label %.thread67

.thread67:                                        ; preds = %..thread67_crit_edge, %.thread66
  %34 = phi i32 [ %.pre82, %..thread67_crit_edge ], [ %30, %.thread66 ]
  %35 = and i32 %34, 67108864
  %.not43 = icmp eq i32 %35, 0
  br i1 %.not43, label %.thread69, label %.thread68

36:                                               ; preds = %32
  %37 = icmp eq i16 %.132, 768
  br i1 %37, label %..thread68_crit_edge, label %.thread58

..thread68_crit_edge:                             ; preds = %36
  %.phi.trans.insert83 = getelementptr inbounds nuw i8, ptr %0, i64 264
  %.pre84 = load i32, ptr %.phi.trans.insert83, align 8, !tbaa !81
  br label %.thread68

.thread68:                                        ; preds = %..thread68_crit_edge, %.thread67
  %38 = phi i32 [ %.pre84, %..thread68_crit_edge ], [ %34, %.thread67 ]
  %39 = and i32 %38, 33554432
  %.not44.not = icmp eq i32 %39, 0
  br i1 %.not44.not, label %.thread69, label %.thread58

.thread69:                                        ; preds = %.thread67, %.thread66, %24, %.thread68
  %.172 = phi i16 [ 768, %.thread68 ], [ 769, %.thread67 ], [ 770, %.thread66 ], [ 771, %24 ]
  %40 = getelementptr inbounds nuw i8, ptr %0, i64 6
  %41 = load i16, ptr %40, align 2, !tbaa !70
  %42 = icmp ult i16 %.172, %41
  %spec.select78 = select i1 %42, i16 0, i16 %.172
  br label %.thread58

.thread58:                                        ; preds = %.thread69, %.thread62, %36, %14, %.thread68, %.thread
  %.033 = phi i16 [ 0, %.thread ], [ 0, %.thread68 ], [ 0, %14 ], [ 0, %36 ], [ %spec.select77, %.thread62 ], [ %spec.select78, %.thread69 ]
  ret i16 %.033
}